; Function Attrs: mustprogress nounwind uwtable
define hidden void @_ZN4lean18scoped_diagnosticsD2Ev(ptr noundef nonnull readonly align 8 captures(none) dereferenceable(8) %0) unnamed_addr #5 align 2 personality ptr @__gxx_personality_v0 {
  %2 = load ptr, ptr %0, align 8, !tbaa !15
  %.not = icmp eq ptr %2, null
  br i1 %.not, label %17, label %3

3:                                                ; preds = %1
  %4 = load ptr, ptr %2, align 8, !tbaa !3
  %5 = ptrtoint ptr %4 to i64
  %6 = and i64 %5, 1
  %.not.i.i = icmp eq i64 %6, 0
  br i1 %.not.i.i, label %7, label %_ZN4lean10object_refD2Ev.exit

7:                                                ; preds = %3
  %8 = load i32, ptr %4, align 4, !tbaa !8
  %9 = icmp sgt i32 %8, 1
  br i1 %9, label %10, label %12, !prof !11

10:                                               ; preds = %7
  %11 = add nsw i32 %8, -1
  store i32 %11, ptr %4, align 4, !tbaa !8
  br label %_ZN4lean10object_refD2Ev.exit

12:                                               ; preds = %7
  %.not.i.i.i = icmp eq i32 %8, 0
  br i1 %.not.i.i.i, label %_ZN4lean10object_refD2Ev.exit, label %13

13:                                               ; preds = %12
  invoke void @lean_dec_ref_cold(ptr noundef nonnull %4)
          to label %_ZN4lean10object_refD2Ev.exit unwind label %14

14:                                               ; preds = %13
  %15 = landingpad { ptr, i32 }
          catch ptr null
  %16 = extractvalue { ptr, i32 } %15, 0
  tail call void @__clang_call_terminate(ptr %16) #23
  unreachable

_ZN4lean10object_refD2Ev.exit:                    ; preds = %3, %10, %12, %13
  tail call void @_ZdlPvm(ptr noundef nonnull %2, i64 noundef 8) #22
  br label %17

17:                                               ; preds = %_ZN4lean10object_refD2Ev.exit, %1
  ret void
}